target datalayout = "e-m:e-p270:32:32-p271:32:32-p272:64:64-i64:64-i128:128-f80:128-n8:16:32:64-S128"
target triple = "x86_64-pc-linux-gnu"

%struct.Msat_Solver_t_ = type { i32, i32, ptr, ptr, double, double, ptr, ptr, double, double, ptr, ptr, ptr, i32, i32, ptr, ptr, ptr, ptr, ptr, ptr, i32, double, i32, double, ptr, ptr, ptr, ptr, i32, ptr, ptr, ptr, ptr, %struct.Msat_SolverStats_t_, i32, i32, i32, i32, i32, i32 }
%struct.Msat_SolverStats_t_ = type { i64, i64, i64, i64, i64, i64 }

@.str = private unnamed_addr constant [27 x i8] c"Current assignments are: \0A\00", align 1
@.str.1 = private unnamed_addr constant [3 x i8] c"%d\00", align 1
@.str.2 = private unnamed_addr constant [2 x i8] c"\0A\00", align 1
@.str.3 = private unnamed_addr constant [2 x i8] c".\00", align 1
@.str.4 = private unnamed_addr constant [2 x i8] c"0\00", align 1
@.str.5 = private unnamed_addr constant [2 x i8] c"1\00", align 1

; Function Attrs: nounwind uwtable
define void @Msat_SolverPrintAssignment(ptr noundef %0) #0 {
  %2 = alloca ptr, align 8
  %3 = alloca i32, align 4
  store ptr %0, ptr %2, align 8, !tbaa !3
  call void @llvm.lifetime.start.p0(i64 4, ptr %3) #5
  %4 = call i32 (ptr, ...) @printf(ptr noundef @.str)
  store i32 0, ptr %3, align 4, !tbaa !8
  br label %5

5:                                                ; preds = %15, %1
  %6 = load i32, ptr %3, align 4, !tbaa !8
  %7 = load ptr, ptr %2, align 8, !tbaa !3
  %8 = getelementptr inbounds nuw %struct.Msat_Solver_t_, ptr %7, i32 0, i32 13
  %9 = load i32, ptr %8, align 8, !tbaa !10
  %10 = icmp slt i32 %6, %9
  br i1 %10, label %11, label %18

11:                                               ; preds = %5
  %12 = load i32, ptr %3, align 4, !tbaa !8
  %13 = srem i32 %12, 10
  %14 = call i32 (ptr, ...) @printf(ptr noundef @.str.1, i32 noundef %13)
  br label %15

15:                                               ; preds = %11
  %16 = load i32, ptr %3, align 4, !tbaa !8
  %17 = add nsw i32 %16, 1
  store i32 %17, ptr %3, align 4, !tbaa !8
  br label %5, !llvm.loop !25

18:                                               ; preds = %5
  %19 = call i32 (ptr, ...) @printf(ptr noundef @.str.2)
  store i32 0, ptr %3, align 4, !tbaa !8
  br label %20

20:                                               ; preds = %53, %18
  %21 = load i32, ptr %3, align 4, !tbaa !8
  %22 = load ptr, ptr %2, align 8, !tbaa !3
  %23 = getelementptr inbounds nuw %struct.Msat_Solver_t_, ptr %22, i32 0, i32 13
  %24 = load i32, ptr %23, align 8, !tbaa !10
  %25 = icmp slt i32 %21, %24
  br i1 %25, label %26, label %56

26:                                               ; preds = %20
  %27 = load ptr, ptr %2, align 8, !tbaa !3
  %28 = getelementptr inbounds nuw %struct.Msat_Solver_t_, ptr %27, i32 0, i32 15
  %29 = load ptr, ptr %28, align 8, !tbaa !27
  %30 = load i32, ptr %3, align 4, !tbaa !8
  %31 = sext i32 %30 to i64
  %32 = getelementptr inbounds i32, ptr %29, i64 %31
  %33 = load i32, ptr %32, align 4, !tbaa !8
  %34 = icmp eq i32 %33, -1
  br i1 %34, label %35, label %37

35:                                               ; preds = %26
  %36 = call i32 (ptr, ...) @printf(ptr noundef @.str.3)
  br label %52

37:                                               ; preds = %26
  %38 = load ptr, ptr %2, align 8, !tbaa !3
  %39 = getelementptr inbounds nuw %struct.Msat_Solver_t_, ptr %38, i32 0, i32 15
  %40 = load ptr, ptr %39, align 8, !tbaa !27
  %41 = load i32, ptr %3, align 4, !tbaa !8
  %42 = sext i32 %41 to i64
  %43 = getelementptr inbounds i32, ptr %40, i64 %42
  %44 = load i32, ptr %43, align 4, !tbaa !8
  %45 = and i32 %44, 1
  %46 = icmp ne i32 %45, 0
  br i1 %46, label %47, label %49

47:                                               ; preds = %37
  %48 = call i32 (ptr, ...) @printf(ptr noundef @.str.4)
  br label %51

49:                                               ; preds = %37
  %50 = call i32 (ptr, ...) @printf(ptr noundef @.str.5)
  br label %51

51:                                               ; preds = %49, %47
  br label %52

52:                                               ; preds = %51, %35
  br label %53

53:                                               ; preds = %52
  %54 = load i32, ptr %3, align 4, !tbaa !8
  %55 = add nsw i32 %54, 1
  store i32 %55, ptr %3, align 4, !tbaa !8
  br label %20, !llvm.loop !28

56:                                               ; preds = %20
  %57 = call i32 (ptr, ...) @printf(ptr noundef @.str.2)
  call void @llvm.lifetime.end.p0(i64 4, ptr %3) #5
  ret void
}