; Function Attrs: nofree nounwind uwtable
define void @Msat_SolverPrintAssignment(ptr noundef readonly captures(none) %0) local_unnamed_addr #0 {
  %puts = tail call i32 @puts(ptr nonnull dereferenceable(1) @str)
  %2 = getelementptr inbounds nuw i8, ptr %0, i64 96
  %3 = load i32, ptr %2, align 8, !tbaa !3
  %4 = icmp sgt i32 %3, 0
  br i1 %4, label %.lr.ph, label %._crit_edge

.lr.ph:                                           ; preds = %1, %.lr.ph
  %.015 = phi i32 [ %7, %.lr.ph ], [ 0, %1 ]
  %5 = urem i32 %.015, 10
  %6 = tail call i32 (ptr, ...) @printf(ptr noundef nonnull dereferenceable(1) @.str.1, i32 noundef %5)
  %7 = add nuw nsw i32 %.015, 1
  %8 = load i32, ptr %2, align 8, !tbaa !3
  %9 = icmp slt i32 %7, %8
  br i1 %9, label %.lr.ph, label %._crit_edge, !llvm.loop !22

._crit_edge:                                      ; preds = %.lr.ph, %1
  %putchar = tail call i32 @putchar(i32 10)
  %10 = load i32, ptr %2, align 8, !tbaa !3
  %11 = icmp sgt i32 %10, 0
  br i1 %11, label %.lr.ph18, label %._crit_edge19

.lr.ph18:                                         ; preds = %._crit_edge
  %12 = getelementptr inbounds nuw i8, ptr %0, i64 104
  br label %13

13:                                               ; preds = %.lr.ph18, %13
  %indvars.iv = phi i64 [ 0, %.lr.ph18 ], [ %indvars.iv.next, %13 ]
  %14 = load ptr, ptr %12, align 8, !tbaa !24
  %15 = getelementptr inbounds nuw i32, ptr %14, i64 %indvars.iv
  %16 = load i32, ptr %15, align 4, !tbaa !25
  %17 = icmp eq i32 %16, -1
  %18 = and i32 %16, 1
  %. = xor i32 %18, 49
  %.sink = select i1 %17, i32 46, i32 %.
  %putchar14 = tail call i32 @putchar(i32 %.sink)
  %indvars.iv.next = add nuw nsw i64 %indvars.iv, 1
  %19 = load i32, ptr %2, align 8, !tbaa !3
  %20 = sext i32 %19 to i64
  %21 = icmp slt i64 %indvars.iv.next, %20
  br i1 %21, label %13, label %._crit_edge19, !llvm.loop !26

._crit_edge19:                                    ; preds = %13, %._crit_edge
  %putchar11 = tail call i32 @putchar(i32 10)
  ret void
}